target datalayout = "e-m:e-p270:32:32-p271:32:32-p272:64:64-i64:64-i128:128-f80:128-n8:16:32:64-S128"
target triple = "x86_64-pc-linux-gnu"

; Function Attrs: nounwind uwtable
define internal void @cfl_luma_subsampling_422_hbd_c(ptr noundef %0, i32 noundef %1, ptr noundef %2, i32 noundef %3, i32 noundef %4) #0 {
  %6 = alloca ptr, align 8
  %7 = alloca i32, align 4
  %8 = alloca ptr, align 8
  %9 = alloca i32, align 4
  %10 = alloca i32, align 4
  %11 = alloca i32, align 4
  %12 = alloca i32, align 4
  store ptr %0, ptr %6, align 8
  store i32 %1, ptr %7, align 4
  store ptr %2, ptr %8, align 8
  store i32 %3, ptr %9, align 4
  store i32 %4, ptr %10, align 4
  store i32 0, ptr %11, align 4
  br label %13

13:                                               ; preds = %54, %5
  %14 = load i32, ptr %11, align 4
  %15 = load i32, ptr %10, align 4
  %16 = icmp slt i32 %14, %15
  br i1 %16, label %17, label %57

17:                                               ; preds = %13
  store i32 0, ptr %12, align 4
  br label %18

18:                                               ; preds = %44, %17
  %19 = load i32, ptr %12, align 4
  %20 = load i32, ptr %9, align 4
  %21 = icmp slt i32 %19, %20
  br i1 %21, label %22, label %47

22:                                               ; preds = %18
  %23 = load ptr, ptr %6, align 8
  %24 = load i32, ptr %12, align 4
  %25 = sext i32 %24 to i64
  %26 = getelementptr inbounds i16, ptr %23, i64 %25
  %27 = load i16, ptr %26, align 2
  %28 = zext i16 %27 to i32
  %29 = load ptr, ptr %6, align 8
  %30 = load i32, ptr %12, align 4
  %31 = add nsw i32 %30, 1
  %32 = sext i32 %31 to i64
  %33 = getelementptr inbounds i16, ptr %29, i64 %32
  %34 = load i16, ptr %33, align 2
  %35 = zext i16 %34 to i32
  %36 = add nsw i32 %28, %35
  %37 = shl i32 %36, 2
  %38 = trunc i32 %37 to i16
  %39 = load ptr, ptr %8, align 8
  %40 = load i32, ptr %12, align 4
  %41 = ashr i32 %40, 1
  %42 = sext i32 %41 to i64
  %43 = getelementptr inbounds i16, ptr %39, i64 %42
  store i16 %38, ptr %43, align 2
  br label %44

44:                                               ; preds = %22
  %45 = load i32, ptr %12, align 4
  %46 = add nsw i32 %45, 2
  store i32 %46, ptr %12, align 4
  br label %18, !llvm.loop !23

47:                                               ; preds = %18
  %48 = load i32, ptr %7, align 4
  %49 = load ptr, ptr %6, align 8
  %50 = sext i32 %48 to i64
  %51 = getelementptr inbounds i16, ptr %49, i64 %50
  store ptr %51, ptr %6, align 8
  %52 = load ptr, ptr %8, align 8
  %53 = getelementptr inbounds i16, ptr %52, i64 32
  store ptr %53, ptr %8, align 8
  br label %54

54:                                               ; preds = %47
  %55 = load i32, ptr %11, align 4
  %56 = add nsw i32 %55, 1
  store i32 %56, ptr %11, align 4
  br label %13, !llvm.loop !24

57:                                               ; preds = %13
  ret void
}

; Function Attrs: nounwind uwtable
define hidden void @cfl_subsample_hbd_422_16x32_c(ptr noundef %0, i32 noundef %1, ptr noundef %2) #0 {
  %4 = alloca ptr, align 8
  %5 = alloca i32, align 4
  %6 = alloca ptr, align 8
  store ptr %0, ptr %4, align 8
  store i32 %1, ptr %5, align 4
  store ptr %2, ptr %6, align 8
  %7 = load ptr, ptr %4, align 8
  %8 = load i32, ptr %5, align 4
  %9 = load ptr, ptr %6, align 8
  call void @cfl_luma_subsampling_422_hbd_c(ptr noundef %7, i32 noundef %8, ptr noundef %9, i32 noundef 16, i32 noundef 32)
  ret void
}